; Function Attrs: uwtable
define void @_ZThn8_N9grpc_core21promise_filter_detail12BaseCallData6WakeupEt(ptr noundef %this, i16 zeroext %0) unnamed_addr #15 align 2 personality ptr @__gxx_personality_v0 {
entry:
  %agg.tmp.i = alloca %"class.absl::lts_20230802::Status", align 8
  %1 = getelementptr inbounds i8, ptr %this, i64 -8
  call void @llvm.lifetime.start.p0(i64 8, ptr nonnull %agg.tmp.i)
  %call.i.i = tail call ptr @gpr_malloc(i64 noundef 48)
  store ptr @"_ZZN9grpc_core21promise_filter_detail12BaseCallData6WakeupEtEN3$_08__invokeEPvN4absl12lts_202308026StatusE", ptr %call.i.i, align 8
  %cb_arg2.i.i = getelementptr inbounds i8, ptr %call.i.i, i64 8
  store ptr %1, ptr %cb_arg2.i.i, align 8
  %wrapper.i.i = getelementptr inbounds i8, ptr %call.i.i, i64 16
  %cb1.i.i.i = getelementptr inbounds i8, ptr %call.i.i, i64 24
  store ptr @_ZN12closure_impl15closure_wrapperEPvN4absl12lts_202308026StatusE, ptr %cb1.i.i.i, align 8
  %cb_arg2.i.i.i = getelementptr inbounds i8, ptr %call.i.i, i64 32
  store ptr %call.i.i, ptr %cb_arg2.i.i.i, align 8
  %error_data.i.i.i = getelementptr inbounds i8, ptr %call.i.i, i64 40
  store i64 0, ptr %error_data.i.i.i, align 8
  %call_combiner_.i = getelementptr inbounds i8, ptr %this, i64 32
  %2 = load ptr, ptr %call_combiner_.i, align 8
  store i64 0, ptr %agg.tmp.i, align 8, !alias.scope !16
  invoke void @_ZN9grpc_core12CallCombiner5StartEP12grpc_closureN4absl12lts_202308026StatusEPKc(ptr noundef nonnull align 8 dereferenceable(96) %2, ptr noundef nonnull %wrapper.i.i, ptr noundef nonnull %agg.tmp.i, ptr noundef nonnull @.str.1)
          to label %invoke.cont.i unwind label %lpad.i

invoke.cont.i:                                    ; preds = %entry
  %3 = load i64, ptr %agg.tmp.i, align 8
  %and.i.i.i.i = and i64 %3, 1
  %cmp.i.i.i.i = icmp eq i64 %and.i.i.i.i, 0
  br i1 %cmp.i.i.i.i, label %_ZN9grpc_core21promise_filter_detail12BaseCallData6WakeupEt.exit, label %if.then.i.i.i

if.then.i.i.i:                                    ; preds = %invoke.cont.i
  invoke void @_ZN4absl12lts_202308026Status15UnrefNonInlinedEm(i64 noundef %3)
          to label %_ZN9grpc_core21promise_filter_detail12BaseCallData6WakeupEt.exit unwind label %terminate.lpad.i.i

terminate.lpad.i.i:                               ; preds = %if.then.i.i.i
  %4 = landingpad { ptr, i32 }
          catch ptr null
  %5 = extractvalue { ptr, i32 } %4, 0
  call void @__clang_call_terminate(ptr %5) #32
  unreachable

lpad.i:                                           ; preds = %entry
  %6 = landingpad { ptr, i32 }
          cleanup
  call void @_ZN4absl12lts_202308026StatusD2Ev(ptr noundef nonnull align 8 dereferenceable(8) %agg.tmp.i) #31
  resume { ptr, i32 } %6

_ZN9grpc_core21promise_filter_detail12BaseCallData6WakeupEt.exit: ; preds = %invoke.cont.i, %if.then.i.i.i
  call void @llvm.lifetime.end.p0(i64 8, ptr nonnull %agg.tmp.i)
  ret void
}